; Function Attrs: nounwind uwtable
define ptr @l___private_Lean_Data_Lsp_TextSync_0__Lean_Lsp_toJsonDidSaveTextDocumentParams____x40_Lean_Data_Lsp_TextSync___hyg_712_(ptr noundef %0) #1 {
  %2 = getelementptr inbounds nuw i8, ptr %0, i64 8
  %3 = load ptr, ptr %2, align 8, !tbaa !10
  %4 = ptrtoint ptr %3 to i64
  %5 = and i64 %4, 1
  %.not = icmp eq i64 %5, 0
  br i1 %.not, label %6, label %lean_inc.exit28

6:                                                ; preds = %1
  %.val.i = load i32, ptr %3, align 4, !tbaa !4
  %7 = icmp sgt i32 %.val.i, 0
  br i1 %7, label %8, label %10, !prof !9

8:                                                ; preds = %6
  %9 = add nuw i32 %.val.i, 1
  store i32 %9, ptr %3, align 4, !tbaa !4
  br label %lean_inc.exit28

10:                                               ; preds = %6
  %.not.i29 = icmp eq i32 %.val.i, 0
  br i1 %.not.i29, label %lean_inc.exit28, label %11

11:                                               ; preds = %10
  tail call void @lean_inc_ref_cold(ptr noundef nonnull %3) #5
  br label %lean_inc.exit28

lean_inc.exit28:                                  ; preds = %11, %10, %8, %1
  %12 = tail call ptr @l___private_Lean_Data_Lsp_Basic_0__Lean_Lsp_toJsonTextDocumentIdentifier____x40_Lean_Data_Lsp_Basic___hyg_2244_(ptr noundef %3) #5
  %13 = load ptr, ptr @l___private_Lean_Data_Lsp_TextSync_0__Lean_Lsp_toJsonDidOpenTextDocumentParams____x40_Lean_Data_Lsp_TextSync___hyg_126____closed__1, align 8, !tbaa !10
  tail call void @lean_inc_heartbeat() #5
  %14 = tail call noalias ptr @mi_malloc_small(i64 noundef 24) #5
  %15 = icmp eq ptr %14, null
  br i1 %15, label %16, label %lean_alloc_ctor.exit

16:                                               ; preds = %lean_inc.exit28
  tail call void @lean_internal_panic_out_of_memory() #6
  unreachable

lean_alloc_ctor.exit:                             ; preds = %lean_inc.exit28
  %17 = getelementptr inbounds nuw i8, ptr %14, i64 4
  store i32 1, ptr %14, align 4, !tbaa !4
  store i32 131096, ptr %17, align 4
  %18 = getelementptr inbounds nuw i8, ptr %14, i64 8
  store ptr %13, ptr %18, align 8, !tbaa !10
  %19 = getelementptr inbounds nuw i8, ptr %14, i64 16
  store ptr %12, ptr %19, align 8, !tbaa !10
  tail call void @lean_inc_heartbeat() #5
  %20 = tail call noalias ptr @mi_malloc_small(i64 noundef 24) #5
  %21 = icmp eq ptr %20, null
  br i1 %21, label %22, label %lean_alloc_ctor.exit30

22:                                               ; preds = %lean_alloc_ctor.exit
  tail call void @lean_internal_panic_out_of_memory() #6
  unreachable

lean_alloc_ctor.exit30:                           ; preds = %lean_alloc_ctor.exit
  %23 = getelementptr inbounds nuw i8, ptr %20, i64 4
  store i32 1, ptr %20, align 4, !tbaa !4
  store i32 16908312, ptr %23, align 4
  %24 = getelementptr inbounds nuw i8, ptr %20, i64 8
  store ptr %14, ptr %24, align 8, !tbaa !10
  %25 = getelementptr inbounds nuw i8, ptr %20, i64 16
  store ptr inttoptr (i64 1 to ptr), ptr %25, align 8, !tbaa !10
  %26 = getelementptr inbounds nuw i8, ptr %0, i64 16
  %27 = load ptr, ptr %26, align 8, !tbaa !10
  %28 = ptrtoint ptr %27 to i64
  %29 = and i64 %28, 1
  %.not36 = icmp eq i64 %29, 0
  br i1 %.not36, label %30, label %lean_inc.exit

30:                                               ; preds = %lean_alloc_ctor.exit30
  %.val.i31 = load i32, ptr %27, align 4, !tbaa !4
  %31 = icmp sgt i32 %.val.i31, 0
  br i1 %31, label %32, label %34, !prof !9

32:                                               ; preds = %30
  %33 = add nuw i32 %.val.i31, 1
  store i32 %33, ptr %27, align 4, !tbaa !4
  br label %lean_inc.exit

34:                                               ; preds = %30
  %.not.i32 = icmp eq i32 %.val.i31, 0
  br i1 %.not.i32, label %lean_inc.exit, label %35

35:                                               ; preds = %34
  tail call void @lean_inc_ref_cold(ptr noundef nonnull %27) #5
  br label %lean_inc.exit

lean_inc.exit:                                    ; preds = %35, %34, %32, %lean_alloc_ctor.exit30
  %36 = ptrtoint ptr %0 to i64
  %37 = and i64 %36, 1
  %.not37 = icmp eq i64 %37, 0
  br i1 %.not37, label %38, label %lean_dec.exit

38:                                               ; preds = %lean_inc.exit
  %39 = load i32, ptr %0, align 4, !tbaa !4
  %40 = icmp sgt i32 %39, 1
  br i1 %40, label %41, label %43, !prof !9

41:                                               ; preds = %38
  %42 = add nsw i32 %39, -1
  store i32 %42, ptr %0, align 4, !tbaa !4
  br label %lean_dec.exit

43:                                               ; preds = %38
  %.not.i = icmp eq i32 %39, 0
  br i1 %.not.i, label %lean_dec.exit, label %44

44:                                               ; preds = %43
  tail call void @lean_dec_ref_cold(ptr noundef nonnull %0) #5
  br label %lean_dec.exit

lean_dec.exit:                                    ; preds = %44, %43, %41, %lean_inc.exit
  %45 = load ptr, ptr @l_Lean_Lsp_instFromJsonTextDocumentContentChangeEvent___closed__2, align 8, !tbaa !10
  %46 = tail call ptr @l_Lean_Json_opt___at___private_Lean_Data_Lsp_Basic_0__Lean_Lsp_toJsonTextEdit____x40_Lean_Data_Lsp_Basic___hyg_1916____spec__2(ptr noundef %45, ptr noundef %27) #5
  tail call void @lean_inc_heartbeat() #5
  %47 = tail call noalias ptr @mi_malloc_small(i64 noundef 24) #5
  %48 = icmp eq ptr %47, null
  br i1 %48, label %49, label %lean_alloc_ctor.exit34

49:                                               ; preds = %lean_dec.exit
  tail call void @lean_internal_panic_out_of_memory() #6
  unreachable

lean_alloc_ctor.exit34:                           ; preds = %lean_dec.exit
  %50 = getelementptr inbounds nuw i8, ptr %47, i64 4
  store i32 1, ptr %47, align 4, !tbaa !4
  store i32 16908312, ptr %50, align 4
  %51 = getelementptr inbounds nuw i8, ptr %47, i64 8
  store ptr %46, ptr %51, align 8, !tbaa !10
  %52 = getelementptr inbounds nuw i8, ptr %47, i64 16
  store ptr inttoptr (i64 1 to ptr), ptr %52, align 8, !tbaa !10
  tail call void @lean_inc_heartbeat() #5
  %53 = tail call noalias ptr @mi_malloc_small(i64 noundef 24) #5
  %54 = icmp eq ptr %53, null
  br i1 %54, label %55, label %lean_alloc_ctor.exit35

55:                                               ; preds = %lean_alloc_ctor.exit34
  tail call void @lean_internal_panic_out_of_memory() #6
  unreachable

lean_alloc_ctor.exit35:                           ; preds = %lean_alloc_ctor.exit34
  %56 = getelementptr inbounds nuw i8, ptr %53, i64 4
  store i32 1, ptr %53, align 4, !tbaa !4
  store i32 16908312, ptr %56, align 4
  %57 = getelementptr inbounds nuw i8, ptr %53, i64 8
  store ptr %20, ptr %57, align 8, !tbaa !10
  %58 = getelementptr inbounds nuw i8, ptr %53, i64 16
  store ptr %47, ptr %58, align 8, !tbaa !10
  %59 = load ptr, ptr @l___private_Lean_Data_Lsp_TextSync_0__Lean_Lsp_toJsonDidOpenTextDocumentParams____x40_Lean_Data_Lsp_TextSync___hyg_126____closed__2, align 8, !tbaa !10
  %60 = tail call ptr @l_List_flatMapTR_go___at___private_Lean_Data_Lsp_Basic_0__Lean_Lsp_toJsonPosition____x40_Lean_Data_Lsp_Basic___hyg_221____spec__1(ptr noundef nonnull %53, ptr noundef %59) #5
  %61 = tail call ptr @l_Lean_Json_mkObj(ptr noundef %60) #5
  ret ptr %61
}